target datalayout = "e-m:e-p270:32:32-p271:32:32-p272:64:64-i64:64-i128:128-f80:128-n8:16:32:64-S128"
target triple = "x86_64-pc-linux-gnu"

@.str = private unnamed_addr constant [2 x i8] c".\00", align 1

; Function Attrs: nounwind uwtable
define ptr @expand_filepath_ex(ptr noundef %0, ptr noundef %1, ptr noundef %2, i64 noundef %3) #0 {
  %5 = alloca ptr, align 8
  %6 = alloca ptr, align 8
  %7 = alloca ptr, align 8
  %8 = alloca i64, align 8
  store ptr %0, ptr %5, align 8
  store ptr %1, ptr %6, align 8
  store ptr %2, ptr %7, align 8
  store i64 %3, ptr %8, align 8
  %9 = load ptr, ptr %5, align 8
  %10 = load ptr, ptr %6, align 8
  %11 = load ptr, ptr %7, align 8
  %12 = load i64, ptr %8, align 8
  %13 = call ptr @expand_filepath_with_mode(ptr noundef %9, ptr noundef %10, ptr noundef %11, i64 noundef %12, i32 noundef 1)
  ret ptr %13
}

; Function Attrs: nounwind uwtable
define ptr @expand_filepath(ptr noundef %0, ptr noundef %1) #0 {
  %3 = alloca ptr, align 8
  %4 = alloca ptr, align 8
  store ptr %0, ptr %3, align 8
  store ptr %1, ptr %4, align 8
  %5 = load ptr, ptr %3, align 8
  %6 = load ptr, ptr %4, align 8
  %7 = call ptr @expand_filepath_ex(ptr noundef %5, ptr noundef %6, ptr noundef null, i64 noundef 0)
  ret ptr %7
}

; Function Attrs: nounwind uwtable
define i32 @php_check_specific_open_basedir(ptr noundef %0, ptr noundef %1) #0 {
  %3 = alloca i32, align 4
  %4 = alloca ptr, align 8
  %5 = alloca ptr, align 8
  %6 = alloca [4097 x i8], align 16
  %7 = alloca [4097 x i8], align 16
  %8 = alloca [4096 x i8], align 16
  %9 = alloca [4097 x i8], align 16
  %10 = alloca ptr, align 8
  %11 = alloca i64, align 8
  %12 = alloca i64, align 8
  %13 = alloca i64, align 8
  %14 = alloca i32, align 4
  %15 = alloca i64, align 8
  %16 = alloca [4096 x i8], align 16
  %17 = alloca i64, align 8
  store ptr %0, ptr %4, align 8
  store ptr %1, ptr %5, align 8
  store i32 0, ptr %14, align 4
  %18 = load ptr, ptr %4, align 8
  %19 = call i32 @strcmp(ptr noundef %18, ptr noundef @.str) #11
  %20 = icmp ne i32 %19, 0
  br i1 %20, label %25, label %21

21:                                               ; preds = %2
  %22 = getelementptr inbounds [4096 x i8], ptr %8, i64 0, i64 0
  %23 = call ptr @getcwd(ptr noundef %22, i64 noundef 4096) #12
  %24 = icmp ne ptr %23, null
  br i1 %24, label %29, label %25

25:                                               ; preds = %21, %2
  %26 = getelementptr inbounds [4096 x i8], ptr %8, i64 0, i64 0
  %27 = load ptr, ptr %4, align 8
  %28 = call i64 @php_strlcpy(ptr noundef %26, ptr noundef %27, i64 noundef 4096)
  br label %29

29:                                               ; preds = %25, %21
  %30 = load ptr, ptr %5, align 8
  %31 = call i64 @strlen(ptr noundef %30) #11
  store i64 %31, ptr %13, align 8
  %32 = load i64, ptr %13, align 8
  %33 = icmp ugt i64 %32, 4095
  br i1 %33, label %34, label %35

34:                                               ; preds = %29
  store i32 -1, ptr %3, align 4
  br label %196

35:                                               ; preds = %29
  %36 = load ptr, ptr %5, align 8
  %37 = getelementptr inbounds [4097 x i8], ptr %6, i64 0, i64 0
  %38 = call ptr @expand_filepath(ptr noundef %36, ptr noundef %37)
  %39 = icmp eq ptr %38, null
  br i1 %39, label %40, label %41

40:                                               ; preds = %35
  store i32 -1, ptr %3, align 4
  br label %196

41:                                               ; preds = %35
  %42 = getelementptr inbounds [4097 x i8], ptr %6, i64 0, i64 0
  %43 = call i64 @strlen(ptr noundef %42) #11
  store i64 %43, ptr %13, align 8
  %44 = getelementptr inbounds [4097 x i8], ptr %9, i64 0, i64 0
  %45 = getelementptr inbounds [4097 x i8], ptr %6, i64 0, i64 0
  %46 = load i64, ptr %13, align 8
  %47 = add i64 %46, 1
  call void @llvm.memcpy.p0.p0.i64(ptr align 16 %44, ptr align 16 %45, i64 %47, i1 false)
  br label %48

48:                                               ; preds = %92, %41
  %49 = getelementptr inbounds [4097 x i8], ptr %9, i64 0, i64 0
  %50 = getelementptr inbounds [4097 x i8], ptr %6, i64 0, i64 0
  %51 = call ptr @tsrm_realpath(ptr noundef %49, ptr noundef %50)
  %52 = icmp eq ptr %51, null
  br i1 %52, label %53, label %95

53:                                               ; preds = %48
  %54 = load i32, ptr %14, align 4
  %55 = icmp eq i32 %54, 0
  br i1 %55, label %56, label %70

56:                                               ; preds = %53
  %57 = getelementptr inbounds [4097 x i8], ptr %9, i64 0, i64 0
  %58 = getelementptr inbounds [4096 x i8], ptr %16, i64 0, i64 0
  %59 = call i64 @readlink(ptr noundef %57, ptr noundef %58, i64 noundef 4095) #12
  store i64 %59, ptr %15, align 8
  %60 = load i64, ptr %15, align 8
  %61 = icmp eq i64 %60, -1
  br i1 %61, label %62, label %63

62:                                               ; preds = %56
  br label %69

63:                                               ; preds = %56
  %64 = getelementptr inbounds [4097 x i8], ptr %9, i64 0, i64 0
  %65 = getelementptr inbounds [4096 x i8], ptr %16, i64 0, i64 0
  %66 = load i64, ptr %15, align 8
  call void @llvm.memcpy.p0.p0.i64(ptr align 16 %64, ptr align 16 %65, i64 %66, i1 false)
  %67 = load i64, ptr %15, align 8
  %68 = getelementptr inbounds [4097 x i8], ptr %9, i64 0, i64 %67
  store i8 0, ptr %68, align 1
  br label %69

69:                                               ; preds = %63, %62
  br label %70

70:                                               ; preds = %69, %53
  %71 = getelementptr inbounds [4097 x i8], ptr %9, i64 0, i64 0
  %72 = call ptr @strrchr(ptr noundef %71, i32 noundef 47) #11
  store ptr %72, ptr %10, align 8
  %73 = load ptr, ptr %10, align 8
  %74 = icmp ne ptr %73, null
  br i1 %74, label %76, label %75

75:                                               ; preds = %70
  store i32 -1, ptr %3, align 4
  br label %196

76:                                               ; preds = %70
  %77 = load ptr, ptr %10, align 8
  %78 = getelementptr inbounds [4097 x i8], ptr %9, i64 0, i64 0
  %79 = ptrtoint ptr %77 to i64
  %80 = ptrtoint ptr %78 to i64
  %81 = sub i64 %79, %80
  %82 = add nsw i64 %81, 1
  store i64 %82, ptr %13, align 8
  %83 = load i64, ptr %13, align 8
  %84 = sub i64 %83, 1
  %85 = getelementptr inbounds [4097 x i8], ptr %9, i64 0, i64 %84
  store i8 0, ptr %85, align 1
  br label %86

86:                                               ; preds = %76
  %87 = getelementptr inbounds [4097 x i8], ptr %9, i64 0, i64 0
  %88 = load i8, ptr %87, align 16
  %89 = sext i8 %88 to i32
  %90 = icmp eq i32 %89, 0
  br i1 %90, label %91, label %92

91:                                               ; preds = %86
  br label %95

92:                                               ; preds = %86
  %93 = load i32, ptr %14, align 4
  %94 = add nsw i32 %93, 1
  store i32 %94, ptr %14, align 4
  br label %48

95:                                               ; preds = %91, %48
  %96 = getelementptr inbounds [4096 x i8], ptr %8, i64 0, i64 0
  %97 = getelementptr inbounds [4097 x i8], ptr %7, i64 0, i64 0
  %98 = call ptr @expand_filepath(ptr noundef %96, ptr noundef %97)
  %99 = icmp ne ptr %98, null
  br i1 %99, label %100, label %195

100:                                              ; preds = %95
  %101 = load ptr, ptr %4, align 8
  %102 = call i64 @strlen(ptr noundef %101) #11
  store i64 %102, ptr %17, align 8
  %103 = getelementptr inbounds [4097 x i8], ptr %7, i64 0, i64 0
  %104 = call i64 @strlen(ptr noundef %103) #11
  store i64 %104, ptr %11, align 8
  %105 = load ptr, ptr %4, align 8
  %106 = load i64, ptr %17, align 8
  %107 = sub i64 %106, 1
  %108 = getelementptr inbounds i8, ptr %105, i64 %107
  %109 = load i8, ptr %108, align 1
  %110 = sext i8 %109 to i32
  %111 = icmp eq i32 %110, 47
  br i1 %111, label %112, label %126

112:                                              ; preds = %100
  %113 = load i64, ptr %11, align 8
  %114 = sub i64 %113, 1
  %115 = getelementptr inbounds [4097 x i8], ptr %7, i64 0, i64 %114
  %116 = load i8, ptr %115, align 1
  %117 = sext i8 %116 to i32
  %118 = icmp ne i32 %117, 47
  br i1 %118, label %119, label %125

119:                                              ; preds = %112
  %120 = load i64, ptr %11, align 8
  %121 = getelementptr inbounds [4097 x i8], ptr %7, i64 0, i64 %120
  store i8 47, ptr %121, align 1
  %122 = load i64, ptr %11, align 8
  %123 = add i64 %122, 1
  store i64 %123, ptr %11, align 8
  %124 = getelementptr inbounds [4097 x i8], ptr %7, i64 0, i64 %123
  store i8 0, ptr %124, align 1
  br label %125

125:                                              ; preds = %119, %112
  br label %132

126:                                              ; preds = %100
  %127 = load i64, ptr %11, align 8
  %128 = add i64 %127, 1
  store i64 %128, ptr %11, align 8
  %129 = getelementptr inbounds [4097 x i8], ptr %7, i64 0, i64 %127
  store i8 47, ptr %129, align 1
  %130 = load i64, ptr %11, align 8
  %131 = getelementptr inbounds [4097 x i8], ptr %7, i64 0, i64 %130
  store i8 0, ptr %131, align 1
  br label %132

132:                                              ; preds = %126, %125
  %133 = getelementptr inbounds [4097 x i8], ptr %6, i64 0, i64 0
  %134 = call i64 @strlen(ptr noundef %133) #11
  store i64 %134, ptr %12, align 8
  %135 = load i64, ptr %13, align 8
  %136 = sub i64 %135, 1
  %137 = getelementptr inbounds [4097 x i8], ptr %9, i64 0, i64 %136
  %138 = load i8, ptr %137, align 1
  %139 = sext i8 %138 to i32
  %140 = icmp eq i32 %139, 47
  br i1 %140, label %141, label %155

141:                                              ; preds = %132
  %142 = load i64, ptr %12, align 8
  %143 = sub i64 %142, 1
  %144 = getelementptr inbounds [4097 x i8], ptr %6, i64 0, i64 %143
  %145 = load i8, ptr %144, align 1
  %146 = sext i8 %145 to i32
  %147 = icmp ne i32 %146, 47
  br i1 %147, label %148, label %154

148:                                              ; preds = %141
  %149 = load i64, ptr %12, align 8
  %150 = getelementptr inbounds [4097 x i8], ptr %6, i64 0, i64 %149
  store i8 47, ptr %150, align 1
  %151 = load i64, ptr %12, align 8
  %152 = add i64 %151, 1
  store i64 %152, ptr %12, align 8
  %153 = getelementptr inbounds [4097 x i8], ptr %6, i64 0, i64 %152
  store i8 0, ptr %153, align 1
  br label %154

154:                                              ; preds = %148, %141
  br label %155

155:                                              ; preds = %154, %132
  %156 = getelementptr inbounds [4097 x i8], ptr %7, i64 0, i64 0
  %157 = getelementptr inbounds [4097 x i8], ptr %6, i64 0, i64 0
  %158 = load i64, ptr %11, align 8
  %159 = call i32 @strncmp(ptr noundef %156, ptr noundef %157, i64 noundef %158) #11
  %160 = icmp eq i32 %159, 0
  br i1 %160, label %161, label %174

161:                                              ; preds = %155
  %162 = load i64, ptr %12, align 8
  %163 = load i64, ptr %11, align 8
  %164 = icmp ugt i64 %162, %163
  br i1 %164, label %165, label %173

165:                                              ; preds = %161
  %166 = load i64, ptr %11, align 8
  %167 = sub i64 %166, 1
  %168 = getelementptr inbounds [4097 x i8], ptr %6, i64 0, i64 %167
  %169 = load i8, ptr %168, align 1
  %170 = sext i8 %169 to i32
  %171 = icmp ne i32 %170, 47
  br i1 %171, label %172, label %173

172:                                              ; preds = %165
  store i32 -1, ptr %3, align 4
  br label %196

173:                                              ; preds = %165, %161
  store i32 0, ptr %3, align 4
  br label %196

174:                                              ; preds = %155
  %175 = load i64, ptr %11, align 8
  %176 = load i64, ptr %12, align 8
  %177 = add i64 %176, 1
  %178 = icmp eq i64 %175, %177
  br i1 %178, label %179, label %194

179:                                              ; preds = %174
  %180 = load i64, ptr %11, align 8
  %181 = sub i64 %180, 1
  %182 = getelementptr inbounds [4097 x i8], ptr %7, i64 0, i64 %181
  %183 = load i8, ptr %182, align 1
  %184 = sext i8 %183 to i32
  %185 = icmp eq i32 %184, 47
  br i1 %185, label %186, label %194

186:                                              ; preds = %179
  %187 = getelementptr inbounds [4097 x i8], ptr %7, i64 0, i64 0
  %188 = getelementptr inbounds [4097 x i8], ptr %6, i64 0, i64 0
  %189 = load i64, ptr %12, align 8
  %190 = call i32 @strncmp(ptr noundef %187, ptr noundef %188, i64 noundef %189) #11
  %191 = icmp eq i32 %190, 0
  br i1 %191, label %192, label %193

192:                                              ; preds = %186
  store i32 0, ptr %3, align 4
  br label %196

193:                                              ; preds = %186
  br label %194

194:                                              ; preds = %193, %179, %174
  store i32 -1, ptr %3, align 4
  br label %196

195:                                              ; preds = %95
  store i32 -1, ptr %3, align 4
  br label %196

196:                                              ; preds = %195, %194, %192, %173, %172, %75, %40, %34
  %197 = load i32, ptr %3, align 4
  ret i32 %197
}