; Function Attrs: nounwind uwtable
define noundef i32 @php_check_specific_open_basedir(ptr noundef %0, ptr noundef %1) local_unnamed_addr #0 {
  %3 = alloca [4097 x i8], align 16
  %4 = alloca [4097 x i8], align 16
  %5 = alloca [4096 x i8], align 16
  %6 = alloca [4097 x i8], align 16
  %7 = alloca [4096 x i8], align 16
  %8 = tail call i32 @strcmp(ptr noundef nonnull dereferenceable(1) %0, ptr noundef nonnull dereferenceable(2) @.str) #17
  %.not = icmp eq i32 %8, 0
  br i1 %.not, label %9, label %11

9:                                                ; preds = %2
  %10 = call ptr @getcwd(ptr noundef nonnull %5, i64 noundef 4096) #16
  %.not40 = icmp eq ptr %10, null
  br i1 %.not40, label %11, label %13

11:                                               ; preds = %9, %2
  %12 = call i64 @php_strlcpy(ptr noundef nonnull %5, ptr noundef %0, i64 noundef 4096) #16
  br label %13

13:                                               ; preds = %11, %9
  %14 = call i64 @strlen(ptr noundef nonnull dereferenceable(1) %1) #17
  %15 = icmp ugt i64 %14, 4095
  br i1 %15, label %.loopexit, label %16

16:                                               ; preds = %13
  %17 = call ptr @expand_filepath_with_mode(ptr noundef %1, ptr noundef nonnull %3, ptr noundef null, i64 noundef 0, i32 noundef 1)
  %18 = icmp eq ptr %17, null
  br i1 %18, label %.loopexit, label %19

19:                                               ; preds = %16
  %20 = call i64 @strlen(ptr noundef nonnull dereferenceable(1) %3) #17
  %21 = add i64 %20, 1
  call void @llvm.memcpy.p0.p0.i64(ptr nonnull align 16 %6, ptr nonnull align 16 %3, i64 %21, i1 false)
  %22 = call ptr @tsrm_realpath(ptr noundef nonnull %6, ptr noundef nonnull %3) #16
  %23 = icmp eq ptr %22, null
  br i1 %23, label %.lr.ph, label %._crit_edge

.lr.ph:                                           ; preds = %19
  %24 = ptrtoint ptr %6 to i64
  br label %29

25:                                               ; preds = %38
  %26 = add nuw nsw i32 %.03546, 1
  %27 = call ptr @tsrm_realpath(ptr noundef nonnull %6, ptr noundef nonnull %3) #16
  %28 = icmp eq ptr %27, null
  br i1 %28, label %29, label %._crit_edge.loopexit

29:                                               ; preds = %.lr.ph, %25
  %.03546 = phi i32 [ 0, %.lr.ph ], [ %26, %25 ]
  %30 = icmp eq i32 %.03546, 0
  br i1 %30, label %31, label %36

31:                                               ; preds = %29
  %32 = call i64 @readlink(ptr noundef nonnull %6, ptr noundef nonnull %7, i64 noundef 4095) #16
  %33 = icmp eq i64 %32, -1
  br i1 %33, label %36, label %34

34:                                               ; preds = %31
  call void @llvm.memcpy.p0.p0.i64(ptr nonnull align 16 %6, ptr nonnull align 16 %7, i64 %32, i1 false)
  %35 = getelementptr inbounds [4097 x i8], ptr %6, i64 0, i64 %32
  store i8 0, ptr %35, align 1
  br label %36

36:                                               ; preds = %34, %31, %29
  %37 = call ptr @strrchr(ptr noundef nonnull dereferenceable(1) %6, i32 noundef 47) #17
  %.not41 = icmp eq ptr %37, null
  br i1 %.not41, label %.loopexit, label %38

38:                                               ; preds = %36
  %39 = ptrtoint ptr %37 to i64
  %40 = sub i64 %39, %24
  %41 = getelementptr inbounds [4097 x i8], ptr %6, i64 0, i64 %40
  store i8 0, ptr %41, align 1
  %42 = load i8, ptr %6, align 16
  %43 = icmp eq i8 %42, 0
  br i1 %43, label %._crit_edge.loopexit, label %25

._crit_edge.loopexit:                             ; preds = %38, %25
  %44 = add nsw i64 %40, 1
  br label %._crit_edge

._crit_edge:                                      ; preds = %._crit_edge.loopexit, %19
  %.1 = phi i64 [ %20, %19 ], [ %44, %._crit_edge.loopexit ]
  %45 = call ptr @expand_filepath_with_mode(ptr noundef nonnull %5, ptr noundef nonnull %4, ptr noundef null, i64 noundef 0, i32 noundef 1)
  %.not42 = icmp eq ptr %45, null
  br i1 %.not42, label %.loopexit, label %46

46:                                               ; preds = %._crit_edge
  %47 = call i64 @strlen(ptr noundef nonnull dereferenceable(1) %0) #17
  %48 = call i64 @strlen(ptr noundef nonnull dereferenceable(1) %4) #17
  %49 = getelementptr i8, ptr %0, i64 %47
  %50 = getelementptr i8, ptr %49, i64 -1
  %51 = load i8, ptr %50, align 1
  %52 = icmp eq i8 %51, 47
  br i1 %52, label %53, label %.sink.split

53:                                               ; preds = %46
  %54 = add i64 %48, -1
  %55 = getelementptr inbounds [4097 x i8], ptr %4, i64 0, i64 %54
  %56 = load i8, ptr %55, align 1
  %.not43 = icmp eq i8 %56, 47
  br i1 %.not43, label %59, label %.sink.split

.sink.split:                                      ; preds = %46, %53
  %57 = getelementptr inbounds [4097 x i8], ptr %4, i64 0, i64 %48
  store i8 47, ptr %57, align 1
  %.sink51 = add i64 %48, 1
  %58 = getelementptr inbounds [4097 x i8], ptr %4, i64 0, i64 %.sink51
  store i8 0, ptr %58, align 1
  br label %59

59:                                               ; preds = %.sink.split, %53
  %.034 = phi i64 [ %48, %53 ], [ %.sink51, %.sink.split ]
  %60 = call i64 @strlen(ptr noundef nonnull dereferenceable(1) %3) #17
  %61 = add i64 %.1, -1
  %62 = getelementptr inbounds [4097 x i8], ptr %6, i64 0, i64 %61
  %63 = load i8, ptr %62, align 1
  %64 = icmp eq i8 %63, 47
  br i1 %64, label %65, label %73

65:                                               ; preds = %59
  %66 = add i64 %60, -1
  %67 = getelementptr inbounds [4097 x i8], ptr %3, i64 0, i64 %66
  %68 = load i8, ptr %67, align 1
  %.not44 = icmp eq i8 %68, 47
  br i1 %.not44, label %73, label %69

69:                                               ; preds = %65
  %70 = getelementptr inbounds [4097 x i8], ptr %3, i64 0, i64 %60
  store i8 47, ptr %70, align 1
  %71 = add i64 %60, 1
  %72 = getelementptr inbounds [4097 x i8], ptr %3, i64 0, i64 %71
  store i8 0, ptr %72, align 1
  br label %73

73:                                               ; preds = %65, %69, %59
  %.037 = phi i64 [ %71, %69 ], [ %60, %65 ], [ %60, %59 ]
  %74 = call i32 @strncmp(ptr noundef nonnull %4, ptr noundef nonnull %3, i64 noundef %.034) #17
  %75 = icmp eq i32 %74, 0
  br i1 %75, label %76, label %83

76:                                               ; preds = %73
  %77 = icmp ugt i64 %.037, %.034
  br i1 %77, label %78, label %82

78:                                               ; preds = %76
  %79 = add i64 %.034, -1
  %80 = getelementptr inbounds [4097 x i8], ptr %3, i64 0, i64 %79
  %81 = load i8, ptr %80, align 1
  %.not45 = icmp eq i8 %81, 47
  br i1 %.not45, label %82, label %.loopexit

82:                                               ; preds = %78, %76
  br label %.loopexit

83:                                               ; preds = %73
  %84 = add i64 %.037, 1
  %85 = icmp eq i64 %.034, %84
  br i1 %85, label %86, label %89

86:                                               ; preds = %83
  %87 = call i32 @strncmp(ptr noundef nonnull %4, ptr noundef nonnull %3, i64 noundef %.037) #17
  %88 = icmp eq i32 %87, 0
  br i1 %88, label %.loopexit, label %89

89:                                               ; preds = %86, %83
  br label %.loopexit

.loopexit:                                        ; preds = %36, %._crit_edge, %86, %78, %16, %13, %89, %82
  %.0 = phi i32 [ 0, %82 ], [ -1, %89 ], [ -1, %13 ], [ -1, %16 ], [ -1, %78 ], [ 0, %86 ], [ -1, %._crit_edge ], [ -1, %36 ]
  ret i32 %.0
}